	.file	"main.cpp"
# GNU C++14 (GCC) version 8.4.0 (x86_64-pc-linux-gnu)
#	compiled by GNU C version 4.8.5 20150623 (Red Hat 4.8.5-44), GMP version 6.1.0, MPFR version 3.1.4, MPC version 1.0.3, isl version isl-0.18-GMP

# GGC heuristics: --param ggc-min-expand=100 --param ggc-min-heapsize=131072
# options passed:  -D_GNU_SOURCE main.cpp -mtune=generic -march=x86-64 -g
# -O3 -fverbose-asm
# options enabled:  -faggressive-loop-optimizations -falign-labels
# -fasynchronous-unwind-tables -fauto-inc-dec -fbranch-count-reg
# -fcaller-saves -fchkp-check-incomplete-type -fchkp-check-read
# -fchkp-check-write -fchkp-instrument-calls -fchkp-narrow-bounds
# -fchkp-optimize -fchkp-store-bounds -fchkp-use-static-bounds
# -fchkp-use-static-const-bounds -fchkp-use-wrappers -fcode-hoisting
# -fcombine-stack-adjustments -fcommon -fcompare-elim -fcprop-registers
# -fcrossjumping -fcse-follow-jumps -fdefer-pop
# -fdelete-null-pointer-checks -fdevirtualize -fdevirtualize-speculatively
# -fdwarf2-cfi-asm -fearly-inlining -feliminate-unused-debug-types
# -fexceptions -fexpensive-optimizations -fforward-propagate
# -ffp-int-builtin-inexact -ffunction-cse -fgcse -fgcse-after-reload
# -fgcse-lm -fgnu-runtime -fgnu-unique -fguess-branch-probability
# -fhoist-adjacent-loads -fident -fif-conversion -fif-conversion2
# -findirect-inlining -finline -finline-atomics -finline-functions
# -finline-functions-called-once -finline-small-functions -fipa-bit-cp
# -fipa-cp -fipa-cp-clone -fipa-icf -fipa-icf-functions -fipa-icf-variables
# -fipa-profile -fipa-pure-const -fipa-ra -fipa-reference -fipa-sra
# -fipa-vrp -fira-hoist-pressure -fira-share-save-slots
# -fira-share-spill-slots -fisolate-erroneous-paths-dereference -fivopts
# -fkeep-static-consts -fleading-underscore -flifetime-dse
# -floop-interchange -floop-unroll-and-jam -flra-remat
# -flto-odr-type-merging -fmath-errno -fmerge-constants
# -fmerge-debug-strings -fmove-loop-invariants -fomit-frame-pointer
# -foptimize-sibling-calls -foptimize-strlen -fpartial-inlining
# -fpeel-loops -fpeephole -fpeephole2 -fplt -fpredictive-commoning
# -fprefetch-loop-arrays -free -freg-struct-return -freorder-blocks
# -freorder-blocks-and-partition -freorder-functions -frerun-cse-after-loop
# -fsched-critical-path-heuristic -fsched-dep-count-heuristic
# -fsched-group-heuristic -fsched-interblock -fsched-last-insn-heuristic
# -fsched-rank-heuristic -fsched-spec -fsched-spec-insn-heuristic
# -fsched-stalled-insns-dep -fschedule-fusion -fschedule-insns2
# -fsemantic-interposition -fshow-column -fshrink-wrap
# -fshrink-wrap-separate -fsigned-zeros -fsplit-ivs-in-unroller
# -fsplit-loops -fsplit-paths -fsplit-wide-types -fssa-backprop
# -fssa-phiopt -fstdarg-opt -fstore-merging -fstrict-aliasing
# -fstrict-volatile-bitfields -fsync-libcalls -fthread-jumps
# -ftoplevel-reorder -ftrapping-math -ftree-bit-ccp -ftree-builtin-call-dce
# -ftree-ccp -ftree-ch -ftree-coalesce-vars -ftree-copy-prop -ftree-cselim
# -ftree-dce -ftree-dominator-opts -ftree-dse -ftree-forwprop -ftree-fre
# -ftree-loop-distribute-patterns -ftree-loop-distribution
# -ftree-loop-if-convert -ftree-loop-im -ftree-loop-ivcanon
# -ftree-loop-optimize -ftree-loop-vectorize -ftree-parallelize-loops=
# -ftree-partial-pre -ftree-phiprop -ftree-pre -ftree-pta -ftree-reassoc
# -ftree-scev-cprop -ftree-sink -ftree-slp-vectorize -ftree-slsr -ftree-sra
# -ftree-switch-conversion -ftree-tail-merge -ftree-ter -ftree-vrp
# -funit-at-a-time -funswitch-loops -funwind-tables -fvar-tracking
# -fvar-tracking-assignments -fverbose-asm -fzero-initialized-in-bss
# -m128bit-long-double -m64 -m80387 -malign-stringops
# -mavx256-split-unaligned-load -mavx256-split-unaligned-store
# -mfancy-math-387 -mfp-ret-in-387 -mfxsr -mglibc -mieee-fp
# -mlong-double-80 -mmmx -mno-sse4 -mpush-args -mred-zone -msse -msse2
# -mstv -mtls-direct-seg-refs -mvzeroupper

	.text
.Ltext0:
	.p2align 4,,15
	.globl	_Z6runLogv
	.type	_Z6runLogv, @function
_Z6runLogv:
.LFB8296:
	.file 1 "main.cpp"
	.loc 1 18 20
	.cfi_startproc
	.loc 1 19 5
.LVL0:
	.loc 1 20 5
.LBB17:
	.loc 1 20 32
.LBE17:
# main.cpp:18: long long runLog() {
	.loc 1 18 20 is_stmt 0
	pushq	%rbp	#
	.cfi_def_cfa_offset 16
	.cfi_offset 6, -16
.LBB22:
# main.cpp:20:     for (unsigned int i = 0; i <100000000; i++) {
	.loc 1 20 23
	xorl	%ebp, %ebp	# i
.LBE22:
# main.cpp:18: long long runLog() {
	.loc 1 18 20
	pushq	%rbx	#
	.cfi_def_cfa_offset 24
	.cfi_offset 3, -24
# main.cpp:19:     long long total = 0;
	.loc 1 19 15
	xorl	%ebx, %ebx	# <retval>
# main.cpp:18: long long runLog() {
	.loc 1 18 20
	subq	$8, %rsp	#,
	.cfi_def_cfa_offset 32
.LVL1:
	.p2align 4,,10
	.p2align 3
.L2:
.LBB23:
	.loc 1 21 9 is_stmt 1
.LBB18:
.LBB19:
# /apps/gnu/8.4.0-offload-nvptx/include/c++/8.4.0/cmath:351:     { return __builtin_log(__x); }
	.file 2 "/apps/gnu/8.4.0-offload-nvptx/include/c++/8.4.0/cmath"
	.loc 2 351 27 is_stmt 0
	pxor	%xmm0, %xmm0	# tmp94
	cvtsi2sd	%ebp, %xmm0	# i, tmp94
.LBE19:
.LBE18:
# main.cpp:20:     for (unsigned int i = 0; i <100000000; i++) {
	.loc 1 20 5
	addl	$1, %ebp	#, i
.LVL2:
.LBB21:
.LBB20:
# /apps/gnu/8.4.0-offload-nvptx/include/c++/8.4.0/cmath:351:     { return __builtin_log(__x); }
	.loc 2 351 27
	call	log	#
.LVL3:
.LBE20:
.LBE21:
# main.cpp:21:         total +=std::log(i);
	.loc 1 21 15
	pxor	%xmm1, %xmm1	# tmp95
	cvtsi2sdq	%rbx, %xmm1	# <retval>, tmp95
	addsd	%xmm0, %xmm1	# _11, _2
	cvttsd2siq	%xmm1, %rbx	# _2, <retval>
.LVL4:
	.loc 1 20 5 is_stmt 1
	.loc 1 20 32
	cmpl	$100000000, %ebp	#, i
	jne	.L2	#,
.LBE23:
	.loc 1 23 5
# main.cpp:24: }
	.loc 1 24 1 is_stmt 0
	addq	$8, %rsp	#,
	.cfi_def_cfa_offset 24
	movq	%rbx, %rax	# <retval>,
	popq	%rbx	#
	.cfi_def_cfa_offset 16
.LVL5:
	popq	%rbp	#
	.cfi_def_cfa_offset 8
.LVL6:
	ret	
	.cfi_endproc
.LFE8296:
	.size	_Z6runLogv, .-_Z6runLogv
	.section	.text.startup,"ax",@progbits
	.p2align 4,,15
	.globl	main
	.type	main, @function
main:
.LFB8297:
	.loc 1 26 34 is_stmt 1
	.cfi_startproc
.LVL7:
	.loc 1 28 5
# main.cpp:26: int main(int argc, char *argv[]) {
	.loc 1 26 34 is_stmt 0
	subq	$8, %rsp	#,
	.cfi_def_cfa_offset 16
# main.cpp:28:     std::cout << runLog() << std::endl;
	.loc 1 28 25
	call	_Z6runLogv	#
.LVL8:
.LBB24:
.LBB25:
# /apps/gnu/8.4.0-offload-nvptx/include/c++/8.4.0/ostream:202:       { return _M_insert(__n); }
	.file 3 "/apps/gnu/8.4.0-offload-nvptx/include/c++/8.4.0/ostream"
	.loc 3 202 29
	movl	$_ZSt4cout, %edi	#,
	movq	%rax, %rsi	# _3,
	call	_ZNSo9_M_insertIxEERSoT_	#
.LVL9:
.LBE25:
.LBE24:
.LBB26:
.LBB27:
# /apps/gnu/8.4.0-offload-nvptx/include/c++/8.4.0/ostream:113: 	return __pf(*this);
	.loc 3 113 13
	movq	%rax, %rdi	# _4,
	call	_ZSt4endlIcSt11char_traitsIcEERSt13basic_ostreamIT_T0_ES6_	#
.LVL10:
.LBE27:
.LBE26:
	.loc 1 29 5 is_stmt 1
# main.cpp:30: }
	.loc 1 30 1 is_stmt 0
	xorl	%eax, %eax	#
	addq	$8, %rsp	#,
	.cfi_def_cfa_offset 8
	ret	
	.cfi_endproc
.LFE8297:
	.size	main, .-main
	.p2align 4,,15
	.type	_GLOBAL__sub_I__Z6runLogv, @function
_GLOBAL__sub_I__Z6runLogv:
.LFB9565:
	.loc 1 30 1 is_stmt 1
	.cfi_startproc
.LVL11:
	subq	$8, %rsp	#,
	.cfi_def_cfa_offset 16
.LBB28:
.LBB29:
# /apps/gnu/8.4.0-offload-nvptx/include/c++/8.4.0/iostream:74:   static ios_base::Init __ioinit;
	.file 4 "/apps/gnu/8.4.0-offload-nvptx/include/c++/8.4.0/iostream"
	.loc 4 74 25 is_stmt 0
	movl	$_ZStL8__ioinit, %edi	#,
	call	_ZNSt8ios_base4InitC1Ev	#
.LVL12:
	movl	$__dso_handle, %edx	#,
	movl	$_ZStL8__ioinit, %esi	#,
	movl	$_ZNSt8ios_base4InitD1Ev, %edi	#,
.LBE29:
.LBE28:
# main.cpp:30: }
	.loc 1 30 1
	addq	$8, %rsp	#,
	.cfi_def_cfa_offset 8
.LBB31:
.LBB30:
# /apps/gnu/8.4.0-offload-nvptx/include/c++/8.4.0/iostream:74:   static ios_base::Init __ioinit;
	.loc 4 74 25
	jmp	__cxa_atexit	#
.LVL13:
.LBE30:
.LBE31:
	.cfi_endproc
.LFE9565:
	.size	_GLOBAL__sub_I__Z6runLogv, .-_GLOBAL__sub_I__Z6runLogv
	.section	.init_array,"aw"
	.align 8
	.quad	_GLOBAL__sub_I__Z6runLogv
	.local	_ZStL8__ioinit
	.comm	_ZStL8__ioinit,1,1
	.text
.Letext0:
	.file 5 "/apps/gnu/8.4.0-offload-nvptx/include/c++/8.4.0/cwchar"
	.file 6 "/apps/gnu/8.4.0-offload-nvptx/include/c++/8.4.0/new"
	.file 7 "/apps/gnu/8.4.0-offload-nvptx/include/c++/8.4.0/bits/exception_ptr.h"
	.file 8 "/apps/gnu/8.4.0-offload-nvptx/include/c++/8.4.0/type_traits"
	.file 9 "/apps/gnu/8.4.0-offload-nvptx/include/c++/8.4.0/x86_64-pc-linux-gnu/bits/c++config.h"
	.file 10 "/apps/gnu/8.4.0-offload-nvptx/include/c++/8.4.0/bits/stl_pair.h"
	.file 11 "/apps/gnu/8.4.0-offload-nvptx/include/c++/8.4.0/debug/debug.h"
	.file 12 "/apps/gnu/8.4.0-offload-nvptx/include/c++/8.4.0/bits/char_traits.h"
	.file 13 "/apps/gnu/8.4.0-offload-nvptx/include/c++/8.4.0/cstdint"
	.file 14 "/apps/gnu/8.4.0-offload-nvptx/include/c++/8.4.0/clocale"
	.file 15 "/apps/gnu/8.4.0-offload-nvptx/include/c++/8.4.0/cstdlib"
	.file 16 "/apps/gnu/8.4.0-offload-nvptx/include/c++/8.4.0/cstdio"
	.file 17 "/apps/gnu/8.4.0-offload-nvptx/include/c++/8.4.0/bits/basic_string.h"
	.file 18 "/apps/gnu/8.4.0-offload-nvptx/include/c++/8.4.0/complex"
	.file 19 "/apps/gnu/8.4.0-offload-nvptx/include/c++/8.4.0/chrono"
	.file 20 "/apps/gnu/8.4.0-offload-nvptx/include/c++/8.4.0/system_error"
	.file 21 "/apps/gnu/8.4.0-offload-nvptx/include/c++/8.4.0/bits/ios_base.h"
	.file 22 "/apps/gnu/8.4.0-offload-nvptx/include/c++/8.4.0/cwctype"
	.file 23 "/apps/gnu/8.4.0-offload-nvptx/include/c++/8.4.0/bits/locale_facets.h"
	.file 24 "/apps/gnu/8.4.0-offload-nvptx/include/c++/8.4.0/iosfwd"
	.file 25 "/apps/gnu/8.4.0-offload-nvptx/include/c++/8.4.0/csetjmp"
	.file 26 "/apps/gnu/8.4.0-offload-nvptx/include/c++/8.4.0/csignal"
	.file 27 "/apps/gnu/8.4.0-offload-nvptx/include/c++/8.4.0/cstdarg"
	.file 28 "/apps/gnu/8.4.0-offload-nvptx/include/c++/8.4.0/cstddef"
	.file 29 "/apps/gnu/8.4.0-offload-nvptx/include/c++/8.4.0/cstring"
	.file 30 "/apps/gnu/8.4.0-offload-nvptx/include/c++/8.4.0/ctime"
	.file 31 "/apps/gnu/8.4.0-offload-nvptx/include/c++/8.4.0/fenv.h"
	.file 32 "/apps/gnu/8.4.0-offload-nvptx/include/c++/8.4.0/cfenv"
	.file 33 "/apps/gnu/8.4.0-offload-nvptx/include/c++/8.4.0/cinttypes"
	.file 34 "/apps/gnu/8.4.0-offload-nvptx/include/c++/8.4.0/cuchar"
	.file 35 "/apps/gnu/8.4.0-offload-nvptx/include/c++/8.4.0/bits/uses_allocator.h"
	.file 36 "/apps/gnu/8.4.0-offload-nvptx/include/c++/8.4.0/tuple"
	.file 37 "/apps/gnu/8.4.0-offload-nvptx/include/c++/8.4.0/functional"
	.file 38 "/apps/gnu/8.4.0-offload-nvptx/include/c++/8.4.0/bits/uniform_int_dist.h"
	.file 39 "/apps/gnu/8.4.0-offload-nvptx/include/c++/8.4.0/bits/regex_automaton.h"
	.file 40 "/apps/gnu/8.4.0-offload-nvptx/include/c++/8.4.0/bits/shared_ptr_base.h"
	.file 41 "/apps/gnu/8.4.0-offload-nvptx/include/c++/8.4.0/ratio"
	.file 42 "/apps/gnu/8.4.0-offload-nvptx/include/c++/8.4.0/bits/std_mutex.h"
	.file 43 "/apps/gnu/8.4.0-offload-nvptx/include/c++/8.4.0/mutex"
	.file 44 "/apps/gnu/8.4.0-offload-nvptx/include/c++/8.4.0/bits/random.h"
	.file 45 "/apps/gnu/8.4.0-offload-nvptx/include/c++/8.4.0/bits/regex_constants.h"
	.file 46 "/apps/gnu/8.4.0-offload-nvptx/include/c++/8.4.0/bits/atomic_base.h"
	.file 47 "/apps/gnu/8.4.0-offload-nvptx/include/c++/8.4.0/bits/regex_error.h"
	.file 48 "/apps/gnu/8.4.0-offload-nvptx/include/c++/8.4.0/bits/basic_ios.h"
	.file 49 "/apps/gnu/8.4.0-offload-nvptx/include/c++/8.4.0/bits/predefined_ops.h"
	.file 50 "/apps/gnu/8.4.0-offload-nvptx/include/c++/8.4.0/ext/new_allocator.h"
	.file 51 "/apps/gnu/8.4.0-offload-nvptx/include/c++/8.4.0/ext/numeric_traits.h"
	.file 52 "/apps/gnu/8.4.0-offload-nvptx/include/c++/8.4.0/ext/concurrence.h"
	.file 53 "/apps/gnu/8.4.0-offload-nvptx/include/c++/8.4.0/ext/type_traits.h"
	.file 54 "/usr/include/stdio.h"
	.file 55 "/usr/include/libio.h"
	.file 56 "/apps/gnu/8.4.0-offload-nvptx/lib/gcc/x86_64-pc-linux-gnu/8.4.0/include/stdarg.h"
	.file 57 "<built-in>"
	.file 58 "/apps/gnu/8.4.0-offload-nvptx/lib/gcc/x86_64-pc-linux-gnu/8.4.0/include/stddef.h"
	.file 59 "/usr/include/wchar.h"
	.file 60 "/usr/include/time.h"
	.file 61 "/usr/include/stdint.h"
	.file 62 "/usr/include/locale.h"
	.file 63 "/usr/include/bits/types.h"
	.file 64 "/usr/include/bits/setjmp.h"
	.file 65 "/apps/gnu/8.4.0-offload-nvptx/include/c++/8.4.0/x86_64-pc-linux-gnu/bits/atomic_word.h"
	.file 66 "/usr/include/stdlib.h"
	.file 67 "/usr/include/bits/sigset.h"
	.file 68 "/usr/include/bits/stdlib-float.h"
	.file 69 "/usr/include/_G_config.h"
	.file 70 "/usr/include/bits/sys_errlist.h"
	.file 71 "/usr/include/bits/stdio.h"
	.file 72 "/usr/include/errno.h"
	.file 73 "/usr/include/wctype.h"
	.file 74 "/usr/include/bits/mathdef.h"
	.file 75 "/usr/include/math.h"
	.file 76 "/usr/include/setjmp.h"
	.file 77 "/usr/include/signal.h"
	.file 78 "/usr/include/string.h"
	.file 79 "/usr/include/bits/fenv.h"
	.file 80 "/usr/include/inttypes.h"
	.file 81 "/usr/include/uchar.h"
	.file 82 "/apps/gnu/8.4.0-offload-nvptx/include/c++/8.4.0/bits/ostream.tcc"
	.file 83 "/apps/gnu/8.4.0-offload-nvptx/include/c++/8.4.0/future"
	.section	.note.GNU-stack,"",@progbits
